target datalayout = "e-m:e-p270:32:32-p271:32:32-p272:64:64-i64:64-i128:128-f80:128-n8:16:32:64-S128"
target triple = "x86_64-pc-linux-gnu"

%"class.Json::Value" = type { %"union.Json::Value::ValueHolder", %struct.anon.130, %"class.Json::Value::Comments", i64, i64 }
%"union.Json::Value::ValueHolder" = type { i64 }
%struct.anon.130 = type { i16, [2 x i8] }
%"class.Json::Value::Comments" = type { %"class.std::unique_ptr.131" }
%"class.std::unique_ptr.131" = type { %"struct.std::__uniq_ptr_data.132" }
%"struct.std::__uniq_ptr_data.132" = type { %"class.std::__uniq_ptr_impl.133" }
%"class.std::__uniq_ptr_impl.133" = type { %"class.std::tuple.134" }
%"class.std::tuple.134" = type { %"struct.std::_Tuple_impl.135" }
%"struct.std::_Tuple_impl.135" = type { %"struct.std::_Head_base.138" }
%"struct.std::_Head_base.138" = type { ptr }

; Function Attrs: mustprogress ssp uwtable
define dso_local void @_ZN6open3d4apps22offline_reconstruction15SetDefaultValueERN4Json5ValueERKNSt7__cxx1112basic_stringIcSt11char_traitsIcESaIcEEEf(ptr noundef nonnull align 8 dereferenceable(40) %0, ptr noundef nonnull align 8 dereferenceable(32) %1, float noundef %2) #3 personality ptr @__gxx_personality_v0 {
  %4 = alloca ptr, align 8
  %5 = alloca ptr, align 8
  %6 = alloca float, align 4
  %7 = alloca %"class.Json::Value", align 8
  %8 = alloca ptr, align 8
  %9 = alloca i32, align 4
  store ptr %0, ptr %4, align 8, !tbaa !866
  store ptr %1, ptr %5, align 8, !tbaa !149
  store float %2, ptr %6, align 4, !tbaa !69
  %10 = load ptr, ptr %4, align 8, !tbaa !866
  %11 = load ptr, ptr %5, align 8, !tbaa !149
  %12 = call noundef zeroext i1 @_ZNK4Json5Value8isMemberERKNSt7__cxx1112basic_stringIcSt11char_traitsIcESaIcEEE(ptr noundef nonnull align 8 dereferenceable(40) %10, ptr noundef nonnull align 8 dereferenceable(32) %11)
  br i1 %12, label %26, label %13

13:                                               ; preds = %3
  call void @llvm.lifetime.start.p0(i64 40, ptr %7) #7
  %14 = load float, ptr %6, align 4, !tbaa !69
  %15 = fpext float %14 to double
  call void @_ZN4Json5ValueC1Ed(ptr noundef nonnull align 8 dereferenceable(40) %7, double noundef %15)
  %16 = load ptr, ptr %4, align 8, !tbaa !866
  %17 = load ptr, ptr %5, align 8, !tbaa !149
  %18 = invoke noundef nonnull align 8 dereferenceable(40) ptr @_ZN4Json5ValueixERKNSt7__cxx1112basic_stringIcSt11char_traitsIcESaIcEEE(ptr noundef nonnull align 8 dereferenceable(40) %16, ptr noundef nonnull align 8 dereferenceable(32) %17)
          to label %19 unwind label %22

19:                                               ; preds = %13
  %20 = invoke noundef nonnull align 8 dereferenceable(40) ptr @_ZN4Json5ValueaSEOS0_(ptr noundef nonnull align 8 dereferenceable(40) %18, ptr noundef nonnull align 8 dereferenceable(40) %7)
          to label %21 unwind label %22

21:                                               ; preds = %19
  call void @_ZN4Json5ValueD1Ev(ptr noundef nonnull align 8 dereferenceable(40) %7) #7
  call void @llvm.lifetime.end.p0(i64 40, ptr %7) #7
  br label %26

22:                                               ; preds = %19, %13
  %23 = landingpad { ptr, i32 }
          cleanup
  %24 = extractvalue { ptr, i32 } %23, 0
  store ptr %24, ptr %8, align 8
  %25 = extractvalue { ptr, i32 } %23, 1
  store i32 %25, ptr %9, align 4
  call void @_ZN4Json5ValueD1Ev(ptr noundef nonnull align 8 dereferenceable(40) %7) #7
  call void @llvm.lifetime.end.p0(i64 40, ptr %7) #7
  br label %27

26:                                               ; preds = %21, %3
  ret void

27:                                               ; preds = %22
  %28 = load ptr, ptr %8, align 8
  %29 = load i32, ptr %9, align 4
  %30 = insertvalue { ptr, i32 } poison, ptr %28, 0
  %31 = insertvalue { ptr, i32 } %30, i32 %29, 1
  resume { ptr, i32 } %31
}