; Function Attrs: mustprogress ssp uwtable
define dso_local void @_ZN6open3d4apps22offline_reconstruction15SetDefaultValueERN4Json5ValueERKNSt7__cxx1112basic_stringIcSt11char_traitsIcESaIcEEEf(ptr noundef nonnull align 8 dereferenceable(40) %0, ptr noundef nonnull align 8 dereferenceable(32) %1, float noundef %2) local_unnamed_addr #4 personality ptr @__gxx_personality_v0 {
  %4 = alloca %"class.Json::Value", align 8
  %5 = tail call noundef zeroext i1 @_ZNK4Json5Value8isMemberERKNSt7__cxx1112basic_stringIcSt11char_traitsIcESaIcEEE(ptr noundef nonnull align 8 dereferenceable(40) %0, ptr noundef nonnull align 8 dereferenceable(32) %1)
  br i1 %5, label %14, label %6

6:                                                ; preds = %3
  call void @llvm.lifetime.start.p0(i64 40, ptr nonnull %4) #33
  %7 = fpext float %2 to double
  call void @_ZN4Json5ValueC1Ed(ptr noundef nonnull align 8 dereferenceable(40) %4, double noundef %7)
  %8 = invoke noundef nonnull align 8 dereferenceable(40) ptr @_ZN4Json5ValueixERKNSt7__cxx1112basic_stringIcSt11char_traitsIcESaIcEEE(ptr noundef nonnull align 8 dereferenceable(40) %0, ptr noundef nonnull align 8 dereferenceable(32) %1)
          to label %9 unwind label %12

9:                                                ; preds = %6
  %10 = invoke noundef nonnull align 8 dereferenceable(40) ptr @_ZN4Json5ValueaSEOS0_(ptr noundef nonnull align 8 dereferenceable(40) %8, ptr noundef nonnull align 8 dereferenceable(40) %4)
          to label %11 unwind label %12

11:                                               ; preds = %9
  call void @_ZN4Json5ValueD1Ev(ptr noundef nonnull align 8 dereferenceable(40) %4) #33
  call void @llvm.lifetime.end.p0(i64 40, ptr nonnull %4) #33
  br label %14

12:                                               ; preds = %9, %6
  %13 = landingpad { ptr, i32 }
          cleanup
  call void @_ZN4Json5ValueD1Ev(ptr noundef nonnull align 8 dereferenceable(40) %4) #33
  call void @llvm.lifetime.end.p0(i64 40, ptr nonnull %4) #33
  resume { ptr, i32 } %13

14:                                               ; preds = %11, %3
  ret void
}